target datalayout = "e-m:e-p270:32:32-p271:32:32-p272:64:64-i64:64-i128:128-f80:128-n8:16:32:64-S128"
target triple = "x86_64-pc-linux-gnu"

@wait_pipe = internal global [2 x i32] zeroinitializer, align 4

; Function Attrs: nounwind uwtable
define internal i32 @wait_dvm(i32 noundef %0) #0 {
  %2 = alloca i32, align 4
  %3 = alloca i32, align 4
  %4 = alloca i8, align 1
  %5 = alloca i32, align 4
  %6 = alloca i32, align 4
  %7 = alloca i32, align 4
  store i32 %0, ptr %3, align 4, !tbaa !4
  call void @llvm.lifetime.start.p0(i64 1, ptr %4) #12
  call void @llvm.lifetime.start.p0(i64 4, ptr %5) #12
  call void @llvm.lifetime.start.p0(i64 4, ptr %6) #12
  %8 = load i32, ptr getelementptr inbounds ([2 x i32], ptr @wait_pipe, i64 0, i64 1), align 4, !tbaa !4
  %9 = call i32 @close(i32 noundef %8)
  br label %10

10:                                               ; preds = %21, %1
  %11 = load i32, ptr @wait_pipe, align 4, !tbaa !4
  %12 = call i64 @read(i32 noundef %11, ptr noundef %4, i64 noundef 1)
  %13 = trunc i64 %12 to i32
  store i32 %13, ptr %5, align 4, !tbaa !4
  br label %14

14:                                               ; preds = %10
  %15 = load i32, ptr %5, align 4, !tbaa !4
  %16 = icmp sgt i32 0, %15
  br i1 %16, label %17, label %21

17:                                               ; preds = %14
  %18 = call ptr @__errno_location() #16
  %19 = load i32, ptr %18, align 4, !tbaa !4
  %20 = icmp eq i32 4, %19
  br label %21

21:                                               ; preds = %17, %14
  %22 = phi i1 [ false, %14 ], [ %20, %17 ]
  br i1 %22, label %10, label %23, !llvm.loop !167

23:                                               ; preds = %21
  %24 = load i32, ptr %5, align 4, !tbaa !4
  %25 = icmp eq i32 1, %24
  br i1 %25, label %26, label %31

26:                                               ; preds = %23
  %27 = load i8, ptr %4, align 1, !tbaa !40
  %28 = sext i8 %27 to i32
  %29 = icmp eq i32 75, %28
  br i1 %29, label %30, label %31

30:                                               ; preds = %26
  store i32 0, ptr %2, align 4
  store i32 1, ptr %7, align 4
  br label %47

31:                                               ; preds = %26, %23
  %32 = load i32, ptr %5, align 4, !tbaa !4
  %33 = icmp eq i32 0, %32
  br i1 %33, label %34, label %45

34:                                               ; preds = %31
  %35 = load i32, ptr %3, align 4, !tbaa !4
  %36 = call i32 @waitpid(i32 noundef %35, ptr noundef %6, i32 noundef 0)
  %37 = load i32, ptr %6, align 4, !tbaa !4
  %38 = and i32 %37, 127
  %39 = icmp eq i32 %38, 0
  br i1 %39, label %40, label %44

40:                                               ; preds = %34
  %41 = load i32, ptr %6, align 4, !tbaa !4
  %42 = and i32 %41, 65280
  %43 = ashr i32 %42, 8
  store i32 %43, ptr %2, align 4
  store i32 1, ptr %7, align 4
  br label %47

44:                                               ; preds = %34
  br label %45

45:                                               ; preds = %44, %31
  br label %46

46:                                               ; preds = %45
  store i32 255, ptr %2, align 4
  store i32 1, ptr %7, align 4
  br label %47

47:                                               ; preds = %46, %40, %30
  call void @llvm.lifetime.end.p0(i64 4, ptr %6) #12
  call void @llvm.lifetime.end.p0(i64 4, ptr %5) #12
  call void @llvm.lifetime.end.p0(i64 1, ptr %4) #12
  %48 = load i32, ptr %2, align 4
  ret i32 %48
}