; Function Attrs: nounwind uwtable
define internal range(i32 0, 256) i32 @wait_dvm(i32 noundef %0) #0 {
  %2 = alloca i8, align 1
  %3 = alloca i32, align 4
  call void @llvm.lifetime.start.p0(i64 1, ptr nonnull %2) #23
  call void @llvm.lifetime.start.p0(i64 4, ptr nonnull %3) #23
  %4 = load i32, ptr getelementptr inbounds nuw (i8, ptr @wait_pipe, i64 4), align 4, !tbaa !9
  %5 = tail call i32 @close(i32 noundef %4) #23
  br label %6

6:                                                ; preds = %11, %1
  %7 = load i32, ptr @wait_pipe, align 4, !tbaa !9
  %8 = call i64 @read(i32 noundef %7, ptr noundef nonnull %2, i64 noundef 1) #23
  %9 = trunc i64 %8 to i32
  %10 = icmp slt i32 %9, 0
  br i1 %10, label %11, label %.critedge

11:                                               ; preds = %6
  %12 = tail call ptr @__errno_location() #30
  %13 = load i32, ptr %12, align 4, !tbaa !9
  %14 = icmp eq i32 %13, 4
  br i1 %14, label %6, label %.thread, !llvm.loop !149

.critedge:                                        ; preds = %6
  %15 = icmp eq i32 %9, 1
  %16 = load i8, ptr %2, align 1
  %17 = icmp eq i8 %16, 75
  %or.cond = select i1 %15, i1 %17, i1 false
  br i1 %or.cond, label %.thread, label %18

18:                                               ; preds = %.critedge
  %19 = icmp eq i32 %9, 0
  br i1 %19, label %20, label %.thread

20:                                               ; preds = %18
  %21 = call i32 @waitpid(i32 noundef %0, ptr noundef nonnull %3, i32 noundef 0) #23
  %22 = load i32, ptr %3, align 4, !tbaa !9
  %23 = and i32 %22, 127
  %24 = icmp eq i32 %23, 0
  br i1 %24, label %25, label %.thread

25:                                               ; preds = %20
  %26 = lshr i32 %22, 8
  %27 = and i32 %26, 255
  br label %.thread

.thread:                                          ; preds = %11, %20, %18, %.critedge, %25
  %.0 = phi i32 [ %27, %25 ], [ 0, %.critedge ], [ 255, %18 ], [ 255, %20 ], [ 255, %11 ]
  call void @llvm.lifetime.end.p0(i64 4, ptr nonnull %3) #23
  call void @llvm.lifetime.end.p0(i64 1, ptr nonnull %2) #23
  ret i32 %.0
}